ARM GAS  C:\Users\likem\AppData\Local\Temp\ccLR5SFd.s 			page 1


   1              		.syntax unified
   2              		.cpu cortex-m3
   3              		.fpu softvfp
   4              		.eabi_attribute 20, 1
   5              		.eabi_attribute 21, 1
   6              		.eabi_attribute 23, 3
   7              		.eabi_attribute 24, 1
   8              		.eabi_attribute 25, 1
   9              		.eabi_attribute 26, 1
  10              		.eabi_attribute 30, 1
  11              		.eabi_attribute 34, 1
  12              		.eabi_attribute 18, 4
  13              		.thumb
  14              		.syntax unified
  15              		.file	"main.c"
  16              		.text
  17              	.Ltext0:
  18              		.cfi_sections	.debug_frame
  19              		.section	.text.ISR_TIMER,"ax",%progbits
  20              		.align	2
  21              		.global	ISR_TIMER
  22              		.thumb
  23              		.thumb_func
  24              		.type	ISR_TIMER, %function
  25              	ISR_TIMER:
  26              	.LFB63:
  27              		.file 1 "main.c"
   1:main.c        **** /* ========================================
   2:main.c        ****  *
   3:main.c        ****  * Copyright Mike Moolenaar, 2019
   4:main.c        ****  * All Rights Reserved
   5:main.c        ****  * ========================================
   6:main.c        **** */
   7:main.c        **** #include "project.h"
   8:main.c        **** #include <stdlib.h>
   9:main.c        **** 
  10:main.c        **** #define MAX_SAMPLES 20
  11:main.c        **** 
  12:main.c        **** void uartPrintInt(int x);
  13:main.c        **** 
  14:main.c        **** int count = 0;
  15:main.c        **** int timer_is_running = 0;
  16:main.c        **** CY_ISR(ISR_TIMER) {
  28              		.loc 1 16 0
  29              		.cfi_startproc
  30              		@ args = 0, pretend = 0, frame = 0
  31              		@ frame_needed = 0, uses_anonymous_args = 0
  32              		@ link register save eliminated.
  17:main.c        ****     count++;
  33              		.loc 1 17 0
  34 0000 024A     		ldr	r2, .L2
  35 0002 1368     		ldr	r3, [r2]
  36 0004 0133     		adds	r3, r3, #1
  37 0006 1360     		str	r3, [r2]
  38 0008 7047     		bx	lr
  39              	.L3:
  40 000a 00BF     		.align	2
ARM GAS  C:\Users\likem\AppData\Local\Temp\ccLR5SFd.s 			page 2


  41              	.L2:
  42 000c 00000000 		.word	.LANCHOR0
  43              		.cfi_endproc
  44              	.LFE63:
  45              		.size	ISR_TIMER, .-ISR_TIMER
  46              		.section	.text.main,"ax",%progbits
  47              		.align	2
  48              		.global	main
  49              		.thumb
  50              		.thumb_func
  51              		.type	main, %function
  52              	main:
  53              	.LFB65:
  18:main.c        **** }
  19:main.c        **** 
  20:main.c        **** CY_ISR(ISR_INPUT) {
  21:main.c        ****     Timer_Stop();
  22:main.c        ****     
  23:main.c        ****     UART_PutString("Time: ");
  24:main.c        ****     uartPrintInt(count*10); // Because timer pulses every 10 microseconds
  25:main.c        ****     UART_PutString("us\r\n");
  26:main.c        ****     
  27:main.c        ****     // Reset values
  28:main.c        ****     count = 0;
  29:main.c        ****     timer_is_running = 0;
  30:main.c        ****     Pin_Input_ClearInterrupt();
  31:main.c        **** }
  32:main.c        **** 
  33:main.c        **** int main(void)
  34:main.c        **** {
  54              		.loc 1 34 0
  55              		.cfi_startproc
  56              		@ args = 0, pretend = 0, frame = 0
  57              		@ frame_needed = 0, uses_anonymous_args = 0
  58 0000 10B5     		push	{r4, lr}
  59              		.cfi_def_cfa_offset 8
  60              		.cfi_offset 4, -8
  61              		.cfi_offset 14, -4
  35:main.c        ****     ISR_Timer_StartEx(ISR_TIMER);
  62              		.loc 1 35 0
  63 0002 1848     		ldr	r0, .L9
  64 0004 FFF7FEFF 		bl	ISR_Timer_StartEx
  65              	.LVL0:
  36:main.c        ****     ISR_Input_StartEx(ISR_INPUT);
  66              		.loc 1 36 0
  67 0008 1748     		ldr	r0, .L9+4
  68 000a FFF7FEFF 		bl	ISR_Input_StartEx
  69              	.LVL1:
  37:main.c        ****     CyGlobalIntEnable; /* Enable global interrupts. */
  70              		.loc 1 37 0
  71              		.syntax unified
  72              	@ 37 "main.c" 1
  73 000e 62B6     		CPSIE   i
  74              	@ 0 "" 2
  38:main.c        ****     
  39:main.c        ****     UART_Start();
  75              		.loc 1 39 0
ARM GAS  C:\Users\likem\AppData\Local\Temp\ccLR5SFd.s 			page 3


  76              		.thumb
  77              		.syntax unified
  78 0010 FFF7FEFF 		bl	UART_Start
  79              	.LVL2:
  40:main.c        ****     UART_PutString("\r\nStart!\r\n");
  80              		.loc 1 40 0
  81 0014 1548     		ldr	r0, .L9+8
  82 0016 FFF7FEFF 		bl	UART_PutString
  83              	.LVL3:
  41:main.c        ****     Pin_Output_Write(0);
  84              		.loc 1 41 0
  85 001a 0020     		movs	r0, #0
  86 001c FFF7FEFF 		bl	Pin_Output_Write
  87              	.LVL4:
  42:main.c        ****     CyDelay(200);
  88              		.loc 1 42 0
  89 0020 C820     		movs	r0, #200
  90 0022 FFF7FEFF 		bl	CyDelay
  91              	.LVL5:
  92              	.LBB2:
  43:main.c        ****     
  44:main.c        ****     for(int i = 0; i < MAX_SAMPLES; i++)
  93              		.loc 1 44 0
  94 0026 0024     		movs	r4, #0
  95 0028 15E0     		b	.L5
  96              	.LVL6:
  97              	.L7:
  45:main.c        ****     {
  46:main.c        ****         timer_is_running = 1;
  98              		.loc 1 46 0
  99 002a 0120     		movs	r0, #1
 100 002c 104B     		ldr	r3, .L9+12
 101 002e 5860     		str	r0, [r3, #4]
  47:main.c        ****         
  48:main.c        ****         // Pulse and start timer
  49:main.c        ****         Pin_Output_Write(1);
 102              		.loc 1 49 0
 103 0030 FFF7FEFF 		bl	Pin_Output_Write
 104              	.LVL7:
  50:main.c        ****         Timer_Start();
 105              		.loc 1 50 0
 106 0034 FFF7FEFF 		bl	Timer_Start
 107              	.LVL8:
  51:main.c        ****         CyDelay(200);
 108              		.loc 1 51 0
 109 0038 C820     		movs	r0, #200
 110 003a FFF7FEFF 		bl	CyDelay
 111              	.LVL9:
  52:main.c        ****         Pin_Output_Write(0);
 112              		.loc 1 52 0
 113 003e 0020     		movs	r0, #0
 114 0040 FFF7FEFF 		bl	Pin_Output_Write
 115              	.LVL10:
 116              	.L6:
  53:main.c        ****         
  54:main.c        ****         // Start timer and wait till timer stops
  55:main.c        ****         while (timer_is_running == 1) {}
ARM GAS  C:\Users\likem\AppData\Local\Temp\ccLR5SFd.s 			page 4


 117              		.loc 1 55 0 discriminator 1
 118 0044 0A4B     		ldr	r3, .L9+12
 119 0046 5B68     		ldr	r3, [r3, #4]
 120 0048 012B     		cmp	r3, #1
 121 004a FBD0     		beq	.L6
  56:main.c        ****         
  57:main.c        ****         // Cool down
  58:main.c        ****         CyDelay(1000);
 122              		.loc 1 58 0 discriminator 2
 123 004c 4FF47A70 		mov	r0, #1000
 124 0050 FFF7FEFF 		bl	CyDelay
 125              	.LVL11:
  44:main.c        ****     {
 126              		.loc 1 44 0 discriminator 2
 127 0054 0134     		adds	r4, r4, #1
 128              	.LVL12:
 129              	.L5:
  44:main.c        ****     {
 130              		.loc 1 44 0 is_stmt 0 discriminator 1
 131 0056 132C     		cmp	r4, #19
 132 0058 E7DD     		ble	.L7
 133              	.LBE2:
  59:main.c        ****     }
  60:main.c        ****     
  61:main.c        ****     UART_PutString("Done!\r\n");
 134              		.loc 1 61 0 is_stmt 1
 135 005a 0648     		ldr	r0, .L9+16
 136 005c FFF7FEFF 		bl	UART_PutString
 137              	.LVL13:
  62:main.c        **** }
 138              		.loc 1 62 0
 139 0060 0020     		movs	r0, #0
 140 0062 10BD     		pop	{r4, pc}
 141              	.LVL14:
 142              	.L10:
 143              		.align	2
 144              	.L9:
 145 0064 00000000 		.word	ISR_TIMER
 146 0068 00000000 		.word	ISR_INPUT
 147 006c 00000000 		.word	.LC0
 148 0070 00000000 		.word	.LANCHOR0
 149 0074 0C000000 		.word	.LC1
 150              		.cfi_endproc
 151              	.LFE65:
 152              		.size	main, .-main
 153              		.section	.text.uartPrintInt,"ax",%progbits
 154              		.align	2
 155              		.global	uartPrintInt
 156              		.thumb
 157              		.thumb_func
 158              		.type	uartPrintInt, %function
 159              	uartPrintInt:
 160              	.LFB66:
  63:main.c        **** 
  64:main.c        **** void uartPrintInt(int x) {
 161              		.loc 1 64 0
 162              		.cfi_startproc
ARM GAS  C:\Users\likem\AppData\Local\Temp\ccLR5SFd.s 			page 5


 163              		@ args = 0, pretend = 0, frame = 8
 164              		@ frame_needed = 0, uses_anonymous_args = 0
 165              	.LVL15:
 166 0000 00B5     		push	{lr}
 167              		.cfi_def_cfa_offset 4
 168              		.cfi_offset 14, -4
 169 0002 83B0     		sub	sp, sp, #12
 170              		.cfi_def_cfa_offset 16
  65:main.c        **** 	char ch[5];
  66:main.c        **** 	itoa(x, ch, 10);
 171              		.loc 1 66 0
 172 0004 0A22     		movs	r2, #10
 173 0006 6946     		mov	r1, sp
 174 0008 FFF7FEFF 		bl	itoa
 175              	.LVL16:
  67:main.c        **** 	UART_PutString(ch);
 176              		.loc 1 67 0
 177 000c 6846     		mov	r0, sp
 178 000e FFF7FEFF 		bl	UART_PutString
 179              	.LVL17:
  68:main.c        **** }...
 180              		.loc 1 68 0
 181 0012 03B0     		add	sp, sp, #12
 182              		.cfi_def_cfa_offset 4
 183              		@ sp needed
 184 0014 5DF804FB 		ldr	pc, [sp], #4
 185              		.cfi_endproc
 186              	.LFE66:
 187              		.size	uartPrintInt, .-uartPrintInt
 188              		.section	.text.ISR_INPUT,"ax",%progbits
 189              		.align	2
 190              		.global	ISR_INPUT
 191              		.thumb
 192              		.thumb_func
 193              		.type	ISR_INPUT, %function
 194              	ISR_INPUT:
 195              	.LFB64:
  20:main.c        **** CY_ISR(ISR_INPUT) {
 196              		.loc 1 20 0
 197              		.cfi_startproc
 198              		@ args = 0, pretend = 0, frame = 0
 199              		@ frame_needed = 0, uses_anonymous_args = 0
 200 0000 10B5     		push	{r4, lr}
 201              		.cfi_def_cfa_offset 8
 202              		.cfi_offset 4, -8
 203              		.cfi_offset 14, -4
  21:main.c        ****     Timer_Stop();
 204              		.loc 1 21 0
 205 0002 FFF7FEFF 		bl	Timer_Stop
 206              	.LVL18:
  23:main.c        ****     UART_PutString("Time: ");
 207              		.loc 1 23 0
 208 0006 0948     		ldr	r0, .L15
 209 0008 FFF7FEFF 		bl	UART_PutString
 210              	.LVL19:
  24:main.c        ****     uartPrintInt(count*10); // Because timer pulses every 10 microseconds
 211              		.loc 1 24 0
ARM GAS  C:\Users\likem\AppData\Local\Temp\ccLR5SFd.s 			page 6


 212 000c 084C     		ldr	r4, .L15+4
 213 000e 2368     		ldr	r3, [r4]
 214 0010 03EB8303 		add	r3, r3, r3, lsl #2
 215 0014 5800     		lsls	r0, r3, #1
 216 0016 FFF7FEFF 		bl	uartPrintInt
 217              	.LVL20:
  25:main.c        ****     UART_PutString("us\r\n");
 218              		.loc 1 25 0
 219 001a 0648     		ldr	r0, .L15+8
 220 001c FFF7FEFF 		bl	UART_PutString
 221              	.LVL21:
  28:main.c        ****     count = 0;
 222              		.loc 1 28 0
 223 0020 0023     		movs	r3, #0
 224 0022 2360     		str	r3, [r4]
  29:main.c        ****     timer_is_running = 0;
 225              		.loc 1 29 0
 226 0024 6360     		str	r3, [r4, #4]
  30:main.c        ****     Pin_Input_ClearInterrupt();
 227              		.loc 1 30 0
 228 0026 FFF7FEFF 		bl	Pin_Input_ClearInterrupt
 229              	.LVL22:
 230 002a 10BD     		pop	{r4, pc}
 231              	.L16:
 232              		.align	2
 233              	.L15:
 234 002c 14000000 		.word	.LC2
 235 0030 00000000 		.word	.LANCHOR0
 236 0034 1C000000 		.word	.LC3
 237              		.cfi_endproc
 238              	.LFE64:
 239              		.size	ISR_INPUT, .-ISR_INPUT
 240              		.global	timer_is_running
 241              		.global	count
 242              		.section	.rodata.str1.4,"aMS",%progbits,1
 243              		.align	2
 244              	.LC0:
 245 0000 0D0A5374 		.ascii	"\015\012Start!\015\012\000"
 245      61727421 
 245      0D0A00
 246 000b 00       		.space	1
 247              	.LC1:
 248 000c 446F6E65 		.ascii	"Done!\015\012\000"
 248      210D0A00 
 249              	.LC2:
 250 0014 54696D65 		.ascii	"Time: \000"
 250      3A2000
 251 001b 00       		.space	1
 252              	.LC3:
 253 001c 75730D0A 		.ascii	"us\015\012\000"
 253      00
 254              		.bss
 255              		.align	2
 256              		.set	.LANCHOR0,. + 0
 257              		.type	count, %object
 258              		.size	count, 4
 259              	count:
ARM GAS  C:\Users\likem\AppData\Local\Temp\ccLR5SFd.s 			page 7


 260 0000 00000000 		.space	4
 261              		.type	timer_is_running, %object
 262              		.size	timer_is_running, 4
 263              	timer_is_running:
 264 0004 00000000 		.space	4
 265              		.text
 266              	.Letext0:
 267              		.file 2 "c:\\program files (x86)\\cypress\\psoc creator\\4.2\\psoc creator\\import\\gnu\\arm\\5.4.
 268              		.file 3 "c:\\program files (x86)\\cypress\\psoc creator\\4.2\\psoc creator\\import\\gnu\\arm\\5.4.
 269              		.file 4 "Generated_Source\\PSoC5/core_cm3.h"
 270              		.file 5 "Generated_Source\\PSoC5/Pin_Output.h"
 271              		.file 6 "Generated_Source\\PSoC5/Timer.h"
 272              		.file 7 "Generated_Source\\PSoC5/CyLib.h"
 273              		.file 8 "Generated_Source\\PSoC5/ISR_Timer.h"
 274              		.file 9 "Generated_Source\\PSoC5/ISR_Input.h"
 275              		.file 10 "Generated_Source\\PSoC5/UART.h"
 276              		.file 11 "c:\\program files (x86)\\cypress\\psoc creator\\4.2\\psoc creator\\import\\gnu\\arm\\5.4
 277              		.file 12 "Generated_Source\\PSoC5/Pin_Input.h"